target datalayout = "e-m:e-p270:32:32-p271:32:32-p272:64:64-i64:64-i128:128-f80:128-n8:16:32:64-S128"
target triple = "x86_64-pc-linux-gnu"

@hf_dis_datum_id = internal global i32 0, align 4
@hf_dis_fixed_datum_value = internal global i32 0, align 4
@hf_dis_fixed_datum_value_as_uint = internal global i32 0, align 4
@hf_dis_fixed_datum_value_as_float = internal global i32 0, align 4
@hf_dis_fixed_datum_value_as_int = internal global i32 0, align 4
@ett_fixed_datum = internal global i32 0, align 4

; Function Attrs: nounwind uwtable
define internal i32 @parseField_DIS_FIELDS_FIXED_DATUM(ptr noundef %0, ptr noundef %1, i32 noundef %2, ptr noundef %3, i32 noundef %4) #0 {
  %6 = alloca ptr, align 8
  %7 = alloca ptr, align 8
  %8 = alloca i32, align 4
  %9 = alloca ptr, align 8
  %10 = alloca i32, align 4
  %11 = alloca ptr, align 8
  %12 = alloca i32, align 4
  store ptr %0, ptr %6, align 8
  store ptr %1, ptr %7, align 8
  store i32 %2, ptr %8, align 4
  store ptr %3, ptr %9, align 8
  store i32 %4, ptr %10, align 4
  store i32 0, ptr %12, align 4
  br label %13

13:                                               ; preds = %53, %5
  %14 = load i32, ptr %12, align 4
  %15 = load i32, ptr %10, align 4
  %16 = icmp ult i32 %14, %15
  br i1 %16, label %17, label %56

17:                                               ; preds = %13
  %18 = load ptr, ptr %7, align 8
  %19 = load ptr, ptr %6, align 8
  %20 = load i32, ptr %8, align 4
  %21 = load i32, ptr @ett_fixed_datum, align 4
  %22 = load ptr, ptr %9, align 8
  %23 = call ptr @proto_tree_add_subtree(ptr noundef %18, ptr noundef %19, i32 noundef %20, i32 noundef 8, i32 noundef %21, ptr noundef null, ptr noundef %22)
  store ptr %23, ptr %11, align 8
  %24 = load ptr, ptr %11, align 8
  %25 = load i32, ptr @hf_dis_datum_id, align 4
  %26 = load ptr, ptr %6, align 8
  %27 = load i32, ptr %8, align 4
  %28 = call ptr @proto_tree_add_item(ptr noundef %24, i32 noundef %25, ptr noundef %26, i32 noundef %27, i32 noundef 4, i32 noundef 0)
  %29 = load i32, ptr %8, align 4
  %30 = add i32 %29, 4
  store i32 %30, ptr %8, align 4
  %31 = load ptr, ptr %11, align 8
  %32 = load i32, ptr @hf_dis_fixed_datum_value, align 4
  %33 = load ptr, ptr %6, align 8
  %34 = load i32, ptr %8, align 4
  %35 = call ptr @proto_tree_add_item(ptr noundef %31, i32 noundef %32, ptr noundef %33, i32 noundef %34, i32 noundef 4, i32 noundef 0)
  %36 = load ptr, ptr %11, align 8
  %37 = load i32, ptr @hf_dis_fixed_datum_value_as_int, align 4
  %38 = load ptr, ptr %6, align 8
  %39 = load i32, ptr %8, align 4
  %40 = call ptr @proto_tree_add_item(ptr noundef %36, i32 noundef %37, ptr noundef %38, i32 noundef %39, i32 noundef 4, i32 noundef 0)
  %41 = load ptr, ptr %11, align 8
  %42 = load i32, ptr @hf_dis_fixed_datum_value_as_float, align 4
  %43 = load ptr, ptr %6, align 8
  %44 = load i32, ptr %8, align 4
  %45 = call ptr @proto_tree_add_item(ptr noundef %41, i32 noundef %42, ptr noundef %43, i32 noundef %44, i32 noundef 4, i32 noundef 0)
  %46 = load ptr, ptr %11, align 8
  %47 = load i32, ptr @hf_dis_fixed_datum_value_as_uint, align 4
  %48 = load ptr, ptr %6, align 8
  %49 = load i32, ptr %8, align 4
  %50 = call ptr @proto_tree_add_item(ptr noundef %46, i32 noundef %47, ptr noundef %48, i32 noundef %49, i32 noundef 4, i32 noundef 0)
  %51 = load i32, ptr %8, align 4
  %52 = add i32 %51, 4
  store i32 %52, ptr %8, align 4
  br label %53

53:                                               ; preds = %17
  %54 = load i32, ptr %12, align 4
  %55 = add i32 %54, 1
  store i32 %55, ptr %12, align 4
  br label %13, !llvm.loop !19

56:                                               ; preds = %13
  %57 = load i32, ptr %8, align 4
  ret i32 %57
}