; Function Attrs: nounwind uwtable
define internal fastcc noundef i32 @parseField_DIS_FIELDS_FIXED_DATUM(ptr noundef %0, ptr noundef %1, i32 noundef %2, i32 noundef %3) unnamed_addr #0 {
  %.not = icmp eq i32 %3, 0
  br i1 %.not, label %._crit_edge, label %.lr.ph

.lr.ph:                                           ; preds = %4, %.lr.ph
  %.02 = phi i32 [ %19, %.lr.ph ], [ 0, %4 ]
  %.0241 = phi i32 [ %18, %.lr.ph ], [ %2, %4 ]
  %5 = load i32, ptr @ett_fixed_datum, align 4
  %6 = tail call ptr @proto_tree_add_subtree(ptr noundef %1, ptr noundef %0, i32 noundef %.0241, i32 noundef 8, i32 noundef %5, ptr noundef null, ptr noundef nonnull @.str.4112) #4
  %7 = load i32, ptr @hf_dis_datum_id, align 4
  %8 = tail call ptr @proto_tree_add_item(ptr noundef %6, i32 noundef %7, ptr noundef %0, i32 noundef %.0241, i32 noundef 4, i32 noundef 0) #4
  %9 = add i32 %.0241, 4
  %10 = load i32, ptr @hf_dis_fixed_datum_value, align 4
  %11 = tail call ptr @proto_tree_add_item(ptr noundef %6, i32 noundef %10, ptr noundef %0, i32 noundef %9, i32 noundef 4, i32 noundef 0) #4
  %12 = load i32, ptr @hf_dis_fixed_datum_value_as_int, align 4
  %13 = tail call ptr @proto_tree_add_item(ptr noundef %6, i32 noundef %12, ptr noundef %0, i32 noundef %9, i32 noundef 4, i32 noundef 0) #4
  %14 = load i32, ptr @hf_dis_fixed_datum_value_as_float, align 4
  %15 = tail call ptr @proto_tree_add_item(ptr noundef %6, i32 noundef %14, ptr noundef %0, i32 noundef %9, i32 noundef 4, i32 noundef 0) #4
  %16 = load i32, ptr @hf_dis_fixed_datum_value_as_uint, align 4
  %17 = tail call ptr @proto_tree_add_item(ptr noundef %6, i32 noundef %16, ptr noundef %0, i32 noundef %9, i32 noundef 4, i32 noundef 0) #4
  %18 = add i32 %.0241, 8
  %19 = add nuw i32 %.02, 1
  %exitcond.not = icmp eq i32 %19, %3
  br i1 %exitcond.not, label %._crit_edge, label %.lr.ph, !llvm.loop !20

._crit_edge:                                      ; preds = %.lr.ph, %4
  %.024.lcssa = phi i32 [ %2, %4 ], [ %18, %.lr.ph ]
  ret i32 %.024.lcssa
}